target datalayout = "e-m:e-p270:32:32-p271:32:32-p272:64:64-i64:64-i128:128-f80:128-n8:16:32:64-S128"
target triple = "x86_64-pc-linux-gnu"

%struct.hf_register_info = type { ptr, %struct._header_field_info }
%struct._header_field_info = type { ptr, ptr, i32, i32, ptr, i64, ptr, i32, i32, i32, i32, ptr }

@proto_signal_pdu = internal global i32 0, align 4
@.str.245 = private unnamed_addr constant [19 x i8] c"signal_pdu.signals\00", align 1

; Function Attrs: null_pointer_is_valid sspstrong uwtable
define internal void @deregister_user_data_hfarray(ptr noundef %0, ptr noundef %1) #0 {
  %3 = alloca ptr, align 8
  %4 = alloca ptr, align 8
  %5 = alloca i32, align 4
  %6 = alloca ptr, align 8
  %7 = alloca i32, align 4
  %8 = alloca i32, align 4
  store ptr %0, ptr %3, align 8
  store ptr %1, ptr %4, align 8
  %9 = load ptr, ptr %3, align 8
  %10 = icmp eq ptr %9, null
  br i1 %10, label %14, label %11

11:                                               ; preds = %2
  %12 = load ptr, ptr %4, align 8
  %13 = icmp eq ptr %12, null
  br i1 %13, label %14, label %15

14:                                               ; preds = %11, %2
  br label %92

15:                                               ; preds = %11
  call void @llvm.lifetime.start.p0(i64 4, ptr %5) #14
  %16 = load ptr, ptr %4, align 8
  %17 = load i32, ptr %16, align 4
  store i32 %17, ptr %5, align 4
  call void @llvm.lifetime.start.p0(i64 8, ptr %6) #14
  %18 = load ptr, ptr %3, align 8
  %19 = load ptr, ptr %18, align 8
  store ptr %19, ptr %6, align 8
  %20 = load ptr, ptr %6, align 8
  %21 = icmp ne ptr %20, null
  br i1 %21, label %22, label %91

22:                                               ; preds = %15
  call void @llvm.lifetime.start.p0(i64 4, ptr %7) #14
  store i32 0, ptr %7, align 4
  br label %23

23:                                               ; preds = %53, %22
  %24 = load i32, ptr %7, align 4
  %25 = load i32, ptr %5, align 4
  %26 = icmp ult i32 %24, %25
  br i1 %26, label %28, label %27

27:                                               ; preds = %23
  call void @llvm.lifetime.end.p0(i64 4, ptr %7) #14
  br label %56

28:                                               ; preds = %23
  %29 = load ptr, ptr %6, align 8
  %30 = load i32, ptr %7, align 4
  %31 = zext i32 %30 to i64
  %32 = getelementptr %struct.hf_register_info, ptr %29, i64 %31
  %33 = getelementptr inbounds nuw %struct.hf_register_info, ptr %32, i32 0, i32 0
  %34 = load ptr, ptr %33, align 8
  %35 = icmp ne ptr %34, null
  br i1 %35, label %36, label %52

36:                                               ; preds = %28
  %37 = load ptr, ptr %6, align 8
  %38 = load i32, ptr %7, align 4
  %39 = zext i32 %38 to i64
  %40 = getelementptr %struct.hf_register_info, ptr %37, i64 %39
  %41 = getelementptr inbounds nuw %struct.hf_register_info, ptr %40, i32 0, i32 1
  %42 = getelementptr inbounds nuw %struct._header_field_info, ptr %41, i32 0, i32 4
  %43 = load ptr, ptr %42, align 8
  %44 = icmp ne ptr %43, null
  br i1 %44, label %45, label %52

45:                                               ; preds = %36
  %46 = load ptr, ptr %6, align 8
  %47 = load i32, ptr %7, align 4
  %48 = zext i32 %47 to i64
  %49 = getelementptr %struct.hf_register_info, ptr %46, i64 %48
  %50 = getelementptr inbounds nuw %struct.hf_register_info, ptr %49, i32 0, i32 1
  %51 = getelementptr inbounds nuw %struct._header_field_info, ptr %50, i32 0, i32 4
  store ptr null, ptr %51, align 8
  br label %52

52:                                               ; preds = %45, %36, %28
  br label %53

53:                                               ; preds = %52
  %54 = load i32, ptr %7, align 4
  %55 = add i32 %54, 1
  store i32 %55, ptr %7, align 4
  br label %23, !llvm.loop !23

56:                                               ; preds = %27
  %57 = load i32, ptr @proto_signal_pdu, align 4
  call void @proto_deregister_all_fields_with_prefix(i32 noundef %57, ptr noundef @.str.245)
  call void @proto_free_deregistered_fields()
  call void @llvm.lifetime.start.p0(i64 4, ptr %8) #14
  store i32 0, ptr %8, align 4
  br label %58

58:                                               ; preds = %84, %56
  %59 = load i32, ptr %8, align 4
  %60 = load i32, ptr %5, align 4
  %61 = icmp ult i32 %59, %60
  br i1 %61, label %63, label %62

62:                                               ; preds = %58
  call void @llvm.lifetime.end.p0(i64 4, ptr %8) #14
  br label %87

63:                                               ; preds = %58
  %64 = load ptr, ptr %6, align 8
  %65 = load i32, ptr %8, align 4
  %66 = zext i32 %65 to i64
  %67 = getelementptr %struct.hf_register_info, ptr %64, i64 %66
  %68 = getelementptr inbounds nuw %struct.hf_register_info, ptr %67, i32 0, i32 0
  %69 = load ptr, ptr %68, align 8
  %70 = icmp ne ptr %69, null
  br i1 %70, label %71, label %83

71:                                               ; preds = %63
  %72 = load ptr, ptr %6, align 8
  %73 = load i32, ptr %8, align 4
  %74 = zext i32 %73 to i64
  %75 = getelementptr %struct.hf_register_info, ptr %72, i64 %74
  %76 = getelementptr inbounds nuw %struct.hf_register_info, ptr %75, i32 0, i32 0
  %77 = load ptr, ptr %76, align 8
  call void @g_free(ptr noundef %77)
  %78 = load ptr, ptr %6, align 8
  %79 = load i32, ptr %8, align 4
  %80 = zext i32 %79 to i64
  %81 = getelementptr %struct.hf_register_info, ptr %78, i64 %80
  %82 = getelementptr inbounds nuw %struct.hf_register_info, ptr %81, i32 0, i32 0
  store ptr null, ptr %82, align 8
  br label %83

83:                                               ; preds = %71, %63
  br label %84

84:                                               ; preds = %83
  %85 = load i32, ptr %8, align 4
  %86 = add i32 %85, 1
  store i32 %86, ptr %8, align 4
  br label %58, !llvm.loop !24

87:                                               ; preds = %62
  %88 = load ptr, ptr %6, align 8
  call void @g_free(ptr noundef %88)
  %89 = load ptr, ptr %3, align 8
  store ptr null, ptr %89, align 8
  %90 = load ptr, ptr %4, align 8
  store i32 0, ptr %90, align 4
  br label %91

91:                                               ; preds = %87, %15
  call void @llvm.lifetime.end.p0(i64 8, ptr %6) #14
  call void @llvm.lifetime.end.p0(i64 4, ptr %5) #14
  br label %92

92:                                               ; preds = %91, %14
  ret void
}