; Function Attrs: null_pointer_is_valid sspstrong uwtable
define internal fastcc void @deregister_user_data_hfarray(ptr noundef captures(address_is_null) %0, ptr noundef captures(address_is_null) %1) unnamed_addr #0 {
  %3 = icmp eq ptr %0, null
  %4 = icmp eq ptr %1, null
  %or.cond = or i1 %3, %4
  br i1 %or.cond, label %21, label %5

5:                                                ; preds = %2
  %6 = load i32, ptr %1, align 4
  %7 = load ptr, ptr %0, align 8
  %.not = icmp eq ptr %7, null
  br i1 %.not, label %21, label %.preheader

.preheader:                                       ; preds = %5
  %.not40 = icmp eq i32 %6, 0
  br i1 %.not40, label %._crit_edge39.critedge, label %.lr.ph.preheader

.lr.ph.preheader:                                 ; preds = %.preheader
  %wide.trip.count = zext i32 %6 to i64
  br label %.lr.ph

._crit_edge:                                      ; preds = %15
  %8 = load i32, ptr @proto_signal_pdu, align 4
  tail call void @proto_deregister_all_fields_with_prefix(i32 noundef %8, ptr noundef nonnull @.str.245)
  tail call void @proto_free_deregistered_fields()
  %wide.trip.count46 = zext i32 %6 to i64
  br label %.lr.ph38

.lr.ph:                                           ; preds = %.lr.ph.preheader, %15
  %indvars.iv = phi i64 [ 0, %.lr.ph.preheader ], [ %indvars.iv.next, %15 ]
  %9 = getelementptr %struct.hf_register_info, ptr %7, i64 %indvars.iv
  %10 = load ptr, ptr %9, align 8
  %.not33 = icmp eq ptr %10, null
  br i1 %.not33, label %15, label %11

11:                                               ; preds = %.lr.ph
  %12 = getelementptr inbounds nuw i8, ptr %9, i64 32
  %13 = load ptr, ptr %12, align 8
  %.not34 = icmp eq ptr %13, null
  br i1 %.not34, label %15, label %14

14:                                               ; preds = %11
  store ptr null, ptr %12, align 8
  br label %15

15:                                               ; preds = %.lr.ph, %11, %14
  %indvars.iv.next = add nuw nsw i64 %indvars.iv, 1
  %exitcond.not = icmp eq i64 %indvars.iv.next, %wide.trip.count
  br i1 %exitcond.not, label %._crit_edge, label %.lr.ph, !llvm.loop !30

._crit_edge39.critedge:                           ; preds = %.preheader
  %16 = load i32, ptr @proto_signal_pdu, align 4
  tail call void @proto_deregister_all_fields_with_prefix(i32 noundef %16, ptr noundef nonnull @.str.245)
  tail call void @proto_free_deregistered_fields()
  br label %._crit_edge39

._crit_edge39:                                    ; preds = %20, %._crit_edge39.critedge
  tail call void @g_free(ptr noundef nonnull %7)
  store ptr null, ptr %0, align 8
  store i32 0, ptr %1, align 4
  br label %21

.lr.ph38:                                         ; preds = %._crit_edge, %20
  %indvars.iv43 = phi i64 [ 0, %._crit_edge ], [ %indvars.iv.next44, %20 ]
  %17 = getelementptr %struct.hf_register_info, ptr %7, i64 %indvars.iv43
  %18 = load ptr, ptr %17, align 8
  %.not32 = icmp eq ptr %18, null
  br i1 %.not32, label %20, label %19

19:                                               ; preds = %.lr.ph38
  tail call void @g_free(ptr noundef nonnull %18)
  store ptr null, ptr %17, align 8
  br label %20

20:                                               ; preds = %.lr.ph38, %19
  %indvars.iv.next44 = add nuw nsw i64 %indvars.iv43, 1
  %exitcond47.not = icmp eq i64 %indvars.iv.next44, %wide.trip.count46
  br i1 %exitcond47.not, label %._crit_edge39, label %.lr.ph38, !llvm.loop !31

21:                                               ; preds = %5, %._crit_edge39, %2
  ret void
}